target datalayout = "e-m:e-p270:32:32-p271:32:32-p272:64:64-i64:64-i128:128-f80:128-n8:16:32:64-S128"
target triple = "x86_64-pc-linux-gnu"

%struct.Vec_Int_t_ = type { i32, i32, ptr }
%struct.Abc_Obj_t_ = type { ptr, ptr, i32, i32, %struct.Vec_Int_t_, %struct.Vec_Int_t_, %union.anon, %union.anon.0 }
%union.anon = type { ptr }
%union.anon.0 = type { ptr }

; Function Attrs: nounwind uwtable
define internal ptr @Abc_ObjRegular(ptr noundef %0) #0 {
  %2 = alloca ptr, align 8
  store ptr %0, ptr %2, align 8
  %3 = load ptr, ptr %2, align 8
  %4 = ptrtoint ptr %3 to i64
  %5 = and i64 %4, -2
  %6 = inttoptr i64 %5 to ptr
  ret ptr %6
}

; Function Attrs: nounwind uwtable
define internal i32 @Vec_CompareNodeIds(ptr noundef %0, ptr noundef %1) #0 {
  %3 = alloca i32, align 4
  %4 = alloca ptr, align 8
  %5 = alloca ptr, align 8
  store ptr %0, ptr %4, align 8
  store ptr %1, ptr %5, align 8
  %6 = load ptr, ptr %4, align 8
  %7 = load ptr, ptr %6, align 8
  %8 = call ptr @Abc_ObjRegular(ptr noundef %7)
  %9 = getelementptr inbounds %struct.Abc_Obj_t_, ptr %8, i32 0, i32 2
  %10 = load i32, ptr %9, align 8
  %11 = load ptr, ptr %5, align 8
  %12 = load ptr, ptr %11, align 8
  %13 = call ptr @Abc_ObjRegular(ptr noundef %12)
  %14 = getelementptr inbounds %struct.Abc_Obj_t_, ptr %13, i32 0, i32 2
  %15 = load i32, ptr %14, align 8
  %16 = icmp slt i32 %10, %15
  br i1 %16, label %17, label %18

17:                                               ; preds = %2
  store i32 -1, ptr %3, align 4
  br label %32

18:                                               ; preds = %2
  %19 = load ptr, ptr %4, align 8
  %20 = load ptr, ptr %19, align 8
  %21 = call ptr @Abc_ObjRegular(ptr noundef %20)
  %22 = getelementptr inbounds %struct.Abc_Obj_t_, ptr %21, i32 0, i32 2
  %23 = load i32, ptr %22, align 8
  %24 = load ptr, ptr %5, align 8
  %25 = load ptr, ptr %24, align 8
  %26 = call ptr @Abc_ObjRegular(ptr noundef %25)
  %27 = getelementptr inbounds %struct.Abc_Obj_t_, ptr %26, i32 0, i32 2
  %28 = load i32, ptr %27, align 8
  %29 = icmp sgt i32 %23, %28
  br i1 %29, label %30, label %31

30:                                               ; preds = %18
  store i32 1, ptr %3, align 4
  br label %32

31:                                               ; preds = %18
  store i32 0, ptr %3, align 4
  br label %32

32:                                               ; preds = %31, %30, %17
  %33 = load i32, ptr %3, align 4
  ret i32 %33
}